; Function Attrs: mustprogress nounwind uwtable
define hidden void @_ZN14TimePartitions31report_gc_phase_start_top_levelEPKcRK11TimeInstantI30CompositeCounterRepresentation29CompositeElapsedCounterSourceEN7GCPhase9PhaseTypeE(ptr nocapture noundef nonnull align 8 dereferenceable(72) %0, ptr noundef %1, ptr nocapture noundef nonnull readonly align 8 dereferenceable(16) %2, i32 noundef %3) local_unnamed_addr #3 align 2 {
  %.sroa.3.i = alloca <{ [4 x i8], %class.TimeInstant, %class.TimeInstant }>, align 4
  call void @llvm.lifetime.start.p0(i64 36, ptr nonnull %.sroa.3.i)
  %5 = getelementptr inbounds i8, ptr %0, i64 32
  %6 = load i32, ptr %5, align 8
  %.sroa.3.4..sroa_idx.i = getelementptr inbounds i8, ptr %.sroa.3.i, i64 4
  %.sroa.3.i.20.i.20.i.20..sroa_idx = getelementptr inbounds i8, ptr %.sroa.3.i, i64 20
  call void @llvm.memset.p0.i64(ptr noundef nonnull align 4 dereferenceable(16) %.sroa.3.i.20.i.20.i.20..sroa_idx, i8 0, i64 16, i1 false)
  call void @llvm.memcpy.p0.p0.i64(ptr noundef nonnull align 4 dereferenceable(16) %.sroa.3.4..sroa_idx.i, ptr noundef nonnull readonly align 8 dereferenceable(16) %2, i64 16, i1 false)
  %7 = load ptr, ptr %0, align 8
  %8 = load i32, ptr %7, align 8
  %9 = getelementptr inbounds i8, ptr %7, i64 4
  %10 = load i32, ptr %9, align 4
  %11 = icmp eq i32 %8, %10
  br i1 %11, label %12, label %_ZN14TimePartitions21report_gc_phase_startEPKcRK11TimeInstantI30CompositeCounterRepresentation29CompositeElapsedCounterSourceEN7GCPhase9PhaseTypeE.exit

12:                                               ; preds = %4
  %13 = add nsw i32 %8, 1
  %14 = icmp sgt i32 %8, -1
  %15 = xor i32 %8, -2147483648
  %16 = and i32 %15, %13
  %17 = icmp eq i32 %16, 0
  %18 = and i1 %14, %17
  %19 = tail call range(i32 0, 33) i32 @llvm.ctlz.i32(i32 %13, i1 true)
  %20 = sub nuw nsw i32 32, %19
  %21 = shl nuw i32 1, %20
  %.0.i.i.i.i.i = select i1 %18, i32 %13, i32 %21
  tail call void @_ZN26GrowableArrayWithAllocatorI7GCPhase13GrowableArrayIS0_EE9expand_toEi(ptr noundef nonnull align 8 dereferenceable(16) %7, i32 noundef %.0.i.i.i.i.i)
  %.pre.i.i = load i32, ptr %7, align 8
  br label %_ZN14TimePartitions21report_gc_phase_startEPKcRK11TimeInstantI30CompositeCounterRepresentation29CompositeElapsedCounterSourceEN7GCPhase9PhaseTypeE.exit

_ZN14TimePartitions21report_gc_phase_startEPKcRK11TimeInstantI30CompositeCounterRepresentation29CompositeElapsedCounterSourceEN7GCPhase9PhaseTypeE.exit: ; preds = %4, %12
  %22 = phi i32 [ %.pre.i.i, %12 ], [ %8, %4 ]
  %23 = getelementptr inbounds i8, ptr %0, i64 8
  %24 = add nsw i32 %22, 1
  store i32 %24, ptr %7, align 8
  %25 = getelementptr inbounds i8, ptr %7, i64 8
  %26 = load ptr, ptr %25, align 8
  %27 = sext i32 %22 to i64
  %28 = getelementptr inbounds %class.GCPhase, ptr %26, i64 %27
  store ptr %1, ptr %28, align 8
  %.sroa.2.0..sroa_idx.i = getelementptr inbounds i8, ptr %28, i64 8
  store i32 %6, ptr %.sroa.2.0..sroa_idx.i, align 8
  %.sroa.3.0..sroa_idx.i = getelementptr inbounds i8, ptr %28, i64 12
  call void @llvm.memcpy.p0.p0.i64(ptr noundef nonnull align 4 dereferenceable(36) %.sroa.3.0..sroa_idx.i, ptr noundef nonnull align 4 dereferenceable(36) %.sroa.3.i, i64 36, i1 false)
  %.sroa.5.0..sroa_idx.i = getelementptr inbounds i8, ptr %28, i64 48
  store i32 %3, ptr %.sroa.5.0..sroa_idx.i, align 8
  %29 = load i32, ptr %5, align 8
  %30 = sext i32 %29 to i64
  %31 = getelementptr inbounds [6 x i32], ptr %23, i64 0, i64 %30
  store i32 %22, ptr %31, align 4
  %32 = load i32, ptr %5, align 8
  %33 = add nsw i32 %32, 1
  store i32 %33, ptr %5, align 8
  call void @llvm.lifetime.end.p0(i64 36, ptr nonnull %.sroa.3.i)
  ret void
}